target datalayout = "e-m:e-p270:32:32-p271:32:32-p272:64:64-i64:64-i128:128-f80:128-n8:16:32:64-S128"
target triple = "x86_64-pc-linux-gnu"

%struct.scene_dsc_t = type { ptr, ptr }
%struct.lv_color_t = type { i8, i8, i8 }

@lv_demo_render.grid_cols = internal constant [9 x i32] [i32 60, i32 60, i32 60, i32 60, i32 60, i32 60, i32 60, i32 60, i32 536870911], align 16
@lv_demo_render.grid_rows = internal constant [9 x i32] [i32 34, i32 34, i32 34, i32 34, i32 34, i32 34, i32 34, i32 34, i32 536870911], align 16
@opa_saved = internal global i8 0, align 1

; Function Attrs: nounwind uwtable
define void @lv_demo_render(i32 noundef %0, i8 noundef zeroext %1) #0 {
  %3 = alloca i32, align 4
  %4 = alloca i8, align 1
  %5 = alloca ptr, align 8
  %6 = alloca %struct.lv_color_t, align 1
  %7 = alloca i24, align 4
  %8 = alloca %struct.lv_color_t, align 1
  %9 = alloca i24, align 4
  %10 = alloca ptr, align 8
  %11 = alloca %struct.lv_color_t, align 1
  %12 = alloca i24, align 4
  store i32 %0, ptr %3, align 4, !tbaa !3
  store i8 %1, ptr %4, align 1, !tbaa !7
  call void @llvm.lifetime.start.p0(i64 8, ptr %5) #5
  %13 = call ptr @lv_screen_active()
  store ptr %13, ptr %5, align 8, !tbaa !8
  %14 = load ptr, ptr %5, align 8, !tbaa !8
  call void @lv_obj_clean(ptr noundef %14)
  %15 = load ptr, ptr %5, align 8, !tbaa !8
  call void @lv_obj_remove_style_all(ptr noundef %15)
  %16 = load ptr, ptr %5, align 8, !tbaa !8
  call void @lv_obj_set_style_bg_opa(ptr noundef %16, i8 noundef zeroext -1, i32 noundef 0)
  %17 = load ptr, ptr %5, align 8, !tbaa !8
  %18 = call i24 @lv_color_black()
  store i24 %18, ptr %6, align 1
  call void @llvm.memcpy.p0.p0.i64(ptr align 4 %7, ptr align 1 %6, i64 3, i1 false)
  %19 = load i24, ptr %7, align 4
  call void @lv_obj_set_style_text_color(ptr noundef %17, i24 %19, i32 noundef 0)
  %20 = load ptr, ptr %5, align 8, !tbaa !8
  %21 = call i24 @lv_color_white()
  store i24 %21, ptr %8, align 1
  call void @llvm.memcpy.p0.p0.i64(ptr align 4 %9, ptr align 1 %8, i64 3, i1 false)
  %22 = load i24, ptr %9, align 4
  call void @lv_obj_set_style_bg_color(ptr noundef %20, i24 %22, i32 noundef 0)
  call void @llvm.lifetime.start.p0(i64 8, ptr %10) #5
  %23 = load ptr, ptr %5, align 8, !tbaa !8
  %24 = call ptr @lv_obj_create(ptr noundef %23)
  store ptr %24, ptr %10, align 8, !tbaa !8
  %25 = load ptr, ptr %10, align 8, !tbaa !8
  call void @lv_obj_remove_style_all(ptr noundef %25)
  %26 = load ptr, ptr %10, align 8, !tbaa !8
  call void @lv_obj_set_style_bg_opa(ptr noundef %26, i8 noundef zeroext -1, i32 noundef 0)
  %27 = load ptr, ptr %10, align 8, !tbaa !8
  %28 = call i24 @lv_color_hex3(i32 noundef 2735)
  store i24 %28, ptr %11, align 1
  call void @llvm.memcpy.p0.p0.i64(ptr align 4 %12, ptr align 1 %11, i64 3, i1 false)
  %29 = load i24, ptr %12, align 4
  call void @lv_obj_set_style_bg_color(ptr noundef %27, i24 %29, i32 noundef 0)
  %30 = load ptr, ptr %10, align 8, !tbaa !8
  call void @lv_obj_set_size(ptr noundef %30, i32 noundef 480, i32 noundef 272)
  %31 = load ptr, ptr %10, align 8, !tbaa !8
  call void @lv_obj_set_grid_dsc_array(ptr noundef %31, ptr noundef @lv_demo_render.grid_cols, ptr noundef @lv_demo_render.grid_rows)
  %32 = load i8, ptr %4, align 1, !tbaa !7
  store i8 %32, ptr @opa_saved, align 1, !tbaa !7
  %33 = load i32, ptr %3, align 4, !tbaa !3
  %34 = zext i32 %33 to i64
  %35 = getelementptr inbounds nuw [15 x %struct.scene_dsc_t], ptr @scenes, i64 0, i64 %34
  %36 = getelementptr inbounds nuw %struct.scene_dsc_t, ptr %35, i32 0, i32 1
  %37 = load ptr, ptr %36, align 8, !tbaa !11
  %38 = icmp ne ptr %37, null
  br i1 %38, label %39, label %46

39:                                               ; preds = %2
  %40 = load i32, ptr %3, align 4, !tbaa !3
  %41 = zext i32 %40 to i64
  %42 = getelementptr inbounds nuw [15 x %struct.scene_dsc_t], ptr @scenes, i64 0, i64 %41
  %43 = getelementptr inbounds nuw %struct.scene_dsc_t, ptr %42, i32 0, i32 1
  %44 = load ptr, ptr %43, align 8, !tbaa !11
  %45 = load ptr, ptr %10, align 8, !tbaa !8
  call void %44(ptr noundef %45)
  br label %46

46:                                               ; preds = %39, %2
  call void @llvm.lifetime.end.p0(i64 8, ptr %10) #5
  call void @llvm.lifetime.end.p0(i64 8, ptr %5) #5
  ret void
}