; Function Attrs: nounwind uwtable
define void @lv_demo_render(i32 noundef %0, i8 noundef zeroext %1) local_unnamed_addr #0 {
  %3 = tail call ptr @lv_screen_active() #6
  tail call void @lv_obj_clean(ptr noundef %3) #6
  tail call void @lv_obj_remove_style_all(ptr noundef %3) #6
  tail call void @lv_obj_set_style_bg_opa(ptr noundef %3, i8 noundef zeroext -1, i32 noundef 0) #6
  %4 = tail call i24 @lv_color_black() #6
  tail call void @lv_obj_set_style_text_color(ptr noundef %3, i24 %4, i32 noundef 0) #6
  %5 = tail call i24 @lv_color_white() #6
  tail call void @lv_obj_set_style_bg_color(ptr noundef %3, i24 %5, i32 noundef 0) #6
  %6 = tail call ptr @lv_obj_create(ptr noundef %3) #6
  tail call void @lv_obj_remove_style_all(ptr noundef %6) #6
  tail call void @lv_obj_set_style_bg_opa(ptr noundef %6, i8 noundef zeroext -1, i32 noundef 0) #6
  %7 = tail call i24 @lv_color_hex3(i32 noundef 2735) #6
  tail call void @lv_obj_set_style_bg_color(ptr noundef %6, i24 %7, i32 noundef 0) #6
  tail call void @lv_obj_set_size(ptr noundef %6, i32 noundef 480, i32 noundef 272) #6
  tail call void @lv_obj_set_grid_dsc_array(ptr noundef %6, ptr noundef nonnull @lv_demo_render.grid_cols, ptr noundef nonnull @lv_demo_render.grid_rows) #6
  store i8 %1, ptr @opa_saved, align 1, !tbaa !3
  %.not = icmp eq i32 %0, 14
  br i1 %.not, label %12, label %8

8:                                                ; preds = %2
  %9 = zext i32 %0 to i64
  %10 = getelementptr inbounds nuw [15 x %struct.scene_dsc_t], ptr @scenes, i64 0, i64 %9, i32 1
  %11 = load ptr, ptr %10, align 8, !tbaa !6
  tail call void %11(ptr noundef %6) #6
  br label %12

12:                                               ; preds = %8, %2
  ret void
}